target datalayout = "e-m:e-p270:32:32-p271:32:32-p272:64:64-i64:64-i128:128-f80:128-n8:16:32:64-S128"
target triple = "x86_64-pc-linux-gnu"

%struct.sio_par = type { i32, i32, i32, i32, i32, i32, i32, i32, i32, i32, i32, i32, [3 x i32], i32 }
%struct.PaSndioStream = type { %struct.PaUtilStreamRepresentation, %struct.PaUtilBufferProcessor, ptr, %struct.sio_par, i32, i32, i32, i64, ptr, ptr, i64, i64, i64 }
%struct.PaUtilStreamRepresentation = type { i64, ptr, ptr, ptr, ptr, ptr, %struct.PaStreamInfo }
%struct.PaStreamInfo = type { i32, double, double, double }
%struct.PaUtilBufferProcessor = type { i64, i64, i32, i32, i32, i32, i64, i32, i32, i32, i32, ptr, ptr, i32, i32, i32, i32, ptr, ptr, i64, i64, ptr, ptr, i64, ptr, ptr, i64, ptr, i64, i32, [2 x i64], [2 x ptr], i32, [2 x i64], [2 x ptr], %struct.PaUtilTriangularDitherGenerator, double, ptr, ptr }
%struct.PaUtilTriangularDitherGenerator = type { i32, i32, i32 }

; Function Attrs: nounwind uwtable
define internal i32 @StopStream(ptr noundef %0) #0 {
  %2 = alloca i32, align 4
  %3 = alloca ptr, align 8
  %4 = alloca ptr, align 8
  %5 = alloca ptr, align 8
  %6 = alloca i32, align 4
  store ptr %0, ptr %3, align 8
  %7 = load ptr, ptr %3, align 8
  store ptr %7, ptr %4, align 8
  %8 = load ptr, ptr %4, align 8
  %9 = getelementptr inbounds nuw %struct.PaSndioStream, ptr %8, i32 0, i32 5
  %10 = load i32, ptr %9, align 4
  %11 = icmp ne i32 %10, 0
  br i1 %11, label %12, label %13

12:                                               ; preds = %1
  store i32 0, ptr %2, align 4
  br label %38

13:                                               ; preds = %1
  %14 = load ptr, ptr %4, align 8
  %15 = getelementptr inbounds nuw %struct.PaSndioStream, ptr %14, i32 0, i32 5
  store i32 1, ptr %15, align 4
  %16 = load ptr, ptr %4, align 8
  %17 = getelementptr inbounds nuw %struct.PaSndioStream, ptr %16, i32 0, i32 0
  %18 = getelementptr inbounds nuw %struct.PaUtilStreamRepresentation, ptr %17, i32 0, i32 3
  %19 = load ptr, ptr %18, align 8
  %20 = icmp ne ptr %19, null
  br i1 %20, label %21, label %30

21:                                               ; preds = %13
  %22 = load ptr, ptr %4, align 8
  %23 = getelementptr inbounds nuw %struct.PaSndioStream, ptr %22, i32 0, i32 12
  %24 = load i64, ptr %23, align 8
  %25 = call i32 @pthread_join(i64 noundef %24, ptr noundef %5)
  store i32 %25, ptr %6, align 4
  %26 = load i32, ptr %6, align 4
  %27 = icmp ne i32 %26, 0
  br i1 %27, label %28, label %29

28:                                               ; preds = %21
  store i32 -9999, ptr %2, align 4
  br label %38

29:                                               ; preds = %21
  br label %30

30:                                               ; preds = %29, %13
  %31 = load ptr, ptr %4, align 8
  %32 = getelementptr inbounds nuw %struct.PaSndioStream, ptr %31, i32 0, i32 2
  %33 = load ptr, ptr %32, align 8
  %34 = call i32 @sio_stop(ptr noundef %33)
  %35 = icmp ne i32 %34, 0
  br i1 %35, label %37, label %36

36:                                               ; preds = %30
  store i32 -9999, ptr %2, align 4
  br label %38

37:                                               ; preds = %30
  store i32 0, ptr %2, align 4
  br label %38

38:                                               ; preds = %37, %36, %28, %12
  %39 = load i32, ptr %2, align 4
  ret i32 %39
}

; Function Attrs: nounwind uwtable
define internal i32 @CloseStream(ptr noundef %0) #0 {
  %2 = alloca ptr, align 8
  %3 = alloca ptr, align 8
  store ptr %0, ptr %2, align 8
  %4 = load ptr, ptr %2, align 8
  store ptr %4, ptr %3, align 8
  %5 = load ptr, ptr %3, align 8
  %6 = getelementptr inbounds nuw %struct.PaSndioStream, ptr %5, i32 0, i32 5
  %7 = load i32, ptr %6, align 4
  %8 = icmp ne i32 %7, 0
  br i1 %8, label %12, label %9

9:                                                ; preds = %1
  %10 = load ptr, ptr %2, align 8
  %11 = call i32 @StopStream(ptr noundef %10)
  br label %12

12:                                               ; preds = %9, %1
  %13 = load ptr, ptr %3, align 8
  %14 = getelementptr inbounds nuw %struct.PaSndioStream, ptr %13, i32 0, i32 4
  %15 = load i32, ptr %14, align 8
  %16 = and i32 %15, 2
  %17 = icmp ne i32 %16, 0
  br i1 %17, label %18, label %22

18:                                               ; preds = %12
  %19 = load ptr, ptr %3, align 8
  %20 = getelementptr inbounds nuw %struct.PaSndioStream, ptr %19, i32 0, i32 8
  %21 = load ptr, ptr %20, align 8
  call void @free(ptr noundef %21) #8
  br label %22

22:                                               ; preds = %18, %12
  %23 = load ptr, ptr %3, align 8
  %24 = getelementptr inbounds nuw %struct.PaSndioStream, ptr %23, i32 0, i32 4
  %25 = load i32, ptr %24, align 8
  %26 = and i32 %25, 1
  %27 = icmp ne i32 %26, 0
  br i1 %27, label %28, label %32

28:                                               ; preds = %22
  %29 = load ptr, ptr %3, align 8
  %30 = getelementptr inbounds nuw %struct.PaSndioStream, ptr %29, i32 0, i32 9
  %31 = load ptr, ptr %30, align 8
  call void @free(ptr noundef %31) #8
  br label %32

32:                                               ; preds = %28, %22
  %33 = load ptr, ptr %3, align 8
  %34 = getelementptr inbounds nuw %struct.PaSndioStream, ptr %33, i32 0, i32 2
  %35 = load ptr, ptr %34, align 8
  call void @sio_close(ptr noundef %35)
  %36 = load ptr, ptr %3, align 8
  %37 = getelementptr inbounds nuw %struct.PaSndioStream, ptr %36, i32 0, i32 0
  call void @PaUtil_TerminateStreamRepresentation(ptr noundef %37)
  %38 = load ptr, ptr %3, align 8
  %39 = getelementptr inbounds nuw %struct.PaSndioStream, ptr %38, i32 0, i32 1
  call void @PaUtil_TerminateBufferProcessor(ptr noundef %39)
  %40 = load ptr, ptr %3, align 8
  call void @PaUtil_FreeMemory(ptr noundef %40)
  ret i32 0
}