; Function Attrs: nounwind uwtable
define internal noundef i32 @CloseStream(ptr noundef %0) #0 {
  %2 = alloca ptr, align 8
  %3 = getelementptr inbounds nuw i8, ptr %0, i64 460
  %4 = load i32, ptr %3, align 4
  %.not = icmp eq i32 %4, 0
  br i1 %.not, label %5, label %16

5:                                                ; preds = %1
  call void @llvm.lifetime.start.p0(i64 8, ptr nonnull %2)
  store i32 1, ptr %3, align 4
  %6 = getelementptr inbounds nuw i8, ptr %0, i64 24
  %7 = load ptr, ptr %6, align 8
  %.not7.i = icmp eq ptr %7, null
  br i1 %.not7.i, label %12, label %8

8:                                                ; preds = %5
  %9 = getelementptr inbounds nuw i8, ptr %0, i64 512
  %10 = load i64, ptr %9, align 8
  %11 = call i32 @pthread_join(i64 noundef %10, ptr noundef nonnull %2) #16
  %.not8.i = icmp eq i32 %11, 0
  br i1 %.not8.i, label %12, label %StopStream.exit

12:                                               ; preds = %8, %5
  %13 = getelementptr inbounds nuw i8, ptr %0, i64 384
  %14 = load ptr, ptr %13, align 8
  %15 = call i32 @sio_stop(ptr noundef %14) #16
  br label %StopStream.exit

StopStream.exit:                                  ; preds = %8, %12
  call void @llvm.lifetime.end.p0(i64 8, ptr nonnull %2)
  br label %16

16:                                               ; preds = %StopStream.exit, %1
  %17 = getelementptr inbounds nuw i8, ptr %0, i64 456
  %18 = load i32, ptr %17, align 8
  %19 = and i32 %18, 2
  %.not11 = icmp eq i32 %19, 0
  br i1 %.not11, label %23, label %20

20:                                               ; preds = %16
  %21 = getelementptr inbounds nuw i8, ptr %0, i64 480
  %22 = load ptr, ptr %21, align 8
  call void @free(ptr noundef %22) #16
  %.pre = load i32, ptr %17, align 8
  br label %23

23:                                               ; preds = %20, %16
  %24 = phi i32 [ %.pre, %20 ], [ %18, %16 ]
  %25 = and i32 %24, 1
  %.not12 = icmp eq i32 %25, 0
  br i1 %.not12, label %29, label %26

26:                                               ; preds = %23
  %27 = getelementptr inbounds nuw i8, ptr %0, i64 488
  %28 = load ptr, ptr %27, align 8
  call void @free(ptr noundef %28) #16
  br label %29

29:                                               ; preds = %26, %23
  %30 = getelementptr inbounds nuw i8, ptr %0, i64 384
  %31 = load ptr, ptr %30, align 8
  call void @sio_close(ptr noundef %31) #16
  call void @PaUtil_TerminateStreamRepresentation(ptr noundef nonnull %0) #16
  %32 = getelementptr inbounds nuw i8, ptr %0, i64 80
  call void @PaUtil_TerminateBufferProcessor(ptr noundef nonnull %32) #16
  call void @PaUtil_FreeMemory(ptr noundef nonnull %0) #16
  ret i32 0
}